; Function Attrs: nounwind uwtable
define internal i32 @test_cert_key_encrypted_content() #1 {
  %1 = tail call ptr @new_pkcs12_builder(ptr noundef nonnull @.str.81) #4
  tail call void @start_pkcs12(ptr noundef %1) #4
  tail call void @start_contentinfo(ptr noundef %1) #4
  tail call void @add_certbag(ptr noundef %1, ptr noundef nonnull @CERT1, i32 noundef 497, ptr noundef nonnull @ATTRS1) #4
  tail call void @add_keybag(ptr noundef %1, ptr noundef nonnull @KEY1, i32 noundef 609, ptr noundef nonnull @ATTRS1, ptr noundef nonnull @enc_default) #4
  tail call void @end_contentinfo_encrypted(ptr noundef %1, ptr noundef nonnull @enc_default) #4
  tail call void @end_pkcs12_with_mac(ptr noundef %1, ptr noundef nonnull @mac_default) #4
  tail call void @start_check_pkcs12_with_mac(ptr noundef %1, ptr noundef nonnull @mac_default) #4
  tail call void @start_check_contentinfo_encrypted(ptr noundef %1, ptr noundef nonnull @enc_default) #4
  tail call void @check_certbag(ptr noundef %1, ptr noundef nonnull @CERT1, i32 noundef 497, ptr noundef nonnull @ATTRS1) #4
  tail call void @check_keybag(ptr noundef %1, ptr noundef nonnull @KEY1, i32 noundef 609, ptr noundef nonnull @ATTRS1, ptr noundef nonnull @enc_default) #4
  tail call void @end_check_contentinfo(ptr noundef %1) #4
  tail call void @end_check_pkcs12(ptr noundef %1) #4
  %2 = tail call i32 @end_pkcs12_builder(ptr noundef %1) #4
  ret i32 %2
}